target datalayout = "e-m:e-p270:32:32-p271:32:32-p272:64:64-i64:64-i128:128-f80:128-n8:16:32:64-S128"
target triple = "x86_64-pc-linux-gnu"

%union.cmsInterpFunction = type { ptr }
%struct._cms_interp_struc = type { ptr, i32, i32, i32, [15 x i32], [15 x i32], [15 x i32], ptr, %union.cmsInterpFunction }

; Function Attrs: nounwind uwtable
define internal i32 @_cmsToFixedDomain(i32 noundef %0) #0 {
  %2 = alloca i32, align 4
  store i32 %0, ptr %2, align 4
  %3 = load i32, ptr %2, align 4
  %4 = load i32, ptr %2, align 4
  %5 = add nsw i32 %4, 32767
  %6 = sdiv i32 %5, 65535
  %7 = add nsw i32 %3, %6
  ret i32 %7
}

; Function Attrs: nounwind uwtable
define internal void @BilinearInterp16(ptr noundef %0, ptr noundef %1, ptr noundef %2) #0 {
  %4 = alloca ptr, align 8
  %5 = alloca ptr, align 8
  %6 = alloca ptr, align 8
  %7 = alloca ptr, align 8
  %8 = alloca i32, align 4
  %9 = alloca i32, align 4
  %10 = alloca i32, align 4
  %11 = alloca i32, align 4
  %12 = alloca i32, align 4
  %13 = alloca i32, align 4
  %14 = alloca i32, align 4
  %15 = alloca i32, align 4
  %16 = alloca i32, align 4
  %17 = alloca i32, align 4
  %18 = alloca i32, align 4
  %19 = alloca i32, align 4
  %20 = alloca i32, align 4
  %21 = alloca i32, align 4
  %22 = alloca i32, align 4
  %23 = alloca i32, align 4
  %24 = alloca i32, align 4
  %25 = alloca i32, align 4
  %26 = alloca i32, align 4
  store ptr %0, ptr %4, align 8
  store ptr %1, ptr %5, align 8
  store ptr %2, ptr %6, align 8
  %27 = load ptr, ptr %6, align 8
  %28 = getelementptr inbounds %struct._cms_interp_struc, ptr %27, i32 0, i32 7
  %29 = load ptr, ptr %28, align 8
  store ptr %29, ptr %7, align 8
  %30 = load ptr, ptr %6, align 8
  %31 = getelementptr inbounds %struct._cms_interp_struc, ptr %30, i32 0, i32 3
  %32 = load i32, ptr %31, align 8
  store i32 %32, ptr %9, align 4
  %33 = load ptr, ptr %4, align 8
  %34 = getelementptr inbounds i16, ptr %33, i64 0
  %35 = load i16, ptr %34, align 2
  %36 = zext i16 %35 to i32
  %37 = load ptr, ptr %6, align 8
  %38 = getelementptr inbounds %struct._cms_interp_struc, ptr %37, i32 0, i32 5
  %39 = getelementptr inbounds [15 x i32], ptr %38, i64 0, i64 0
  %40 = load i32, ptr %39, align 8
  %41 = mul i32 %36, %40
  %42 = call i32 @_cmsToFixedDomain(i32 noundef %41)
  store i32 %42, ptr %10, align 4
  %43 = load i32, ptr %10, align 4
  %44 = ashr i32 %43, 16
  store i32 %44, ptr %14, align 4
  %45 = load i32, ptr %10, align 4
  %46 = and i32 %45, 65535
  store i32 %46, ptr %12, align 4
  %47 = load ptr, ptr %4, align 8
  %48 = getelementptr inbounds i16, ptr %47, i64 1
  %49 = load i16, ptr %48, align 2
  %50 = zext i16 %49 to i32
  %51 = load ptr, ptr %6, align 8
  %52 = getelementptr inbounds %struct._cms_interp_struc, ptr %51, i32 0, i32 5
  %53 = getelementptr inbounds [15 x i32], ptr %52, i64 0, i64 1
  %54 = load i32, ptr %53, align 4
  %55 = mul i32 %50, %54
  %56 = call i32 @_cmsToFixedDomain(i32 noundef %55)
  store i32 %56, ptr %11, align 4
  %57 = load i32, ptr %11, align 4
  %58 = ashr i32 %57, 16
  store i32 %58, ptr %15, align 4
  %59 = load i32, ptr %11, align 4
  %60 = and i32 %59, 65535
  store i32 %60, ptr %13, align 4
  %61 = load ptr, ptr %6, align 8
  %62 = getelementptr inbounds %struct._cms_interp_struc, ptr %61, i32 0, i32 6
  %63 = getelementptr inbounds [15 x i32], ptr %62, i64 0, i64 1
  %64 = load i32, ptr %63, align 4
  %65 = load i32, ptr %14, align 4
  %66 = mul i32 %64, %65
  store i32 %66, ptr %16, align 4
  %67 = load i32, ptr %16, align 4
  %68 = load ptr, ptr %4, align 8
  %69 = getelementptr inbounds i16, ptr %68, i64 0
  %70 = load i16, ptr %69, align 2
  %71 = zext i16 %70 to i32
  %72 = icmp eq i32 %71, 65535
  br i1 %72, label %73, label %74

73:                                               ; preds = %3
  br label %79

74:                                               ; preds = %3
  %75 = load ptr, ptr %6, align 8
  %76 = getelementptr inbounds %struct._cms_interp_struc, ptr %75, i32 0, i32 6
  %77 = getelementptr inbounds [15 x i32], ptr %76, i64 0, i64 1
  %78 = load i32, ptr %77, align 4
  br label %79

79:                                               ; preds = %74, %73
  %80 = phi i32 [ 0, %73 ], [ %78, %74 ]
  %81 = add i32 %67, %80
  store i32 %81, ptr %17, align 4
  %82 = load ptr, ptr %6, align 8
  %83 = getelementptr inbounds %struct._cms_interp_struc, ptr %82, i32 0, i32 6
  %84 = getelementptr inbounds [15 x i32], ptr %83, i64 0, i64 0
  %85 = load i32, ptr %84, align 4
  %86 = load i32, ptr %15, align 4
  %87 = mul i32 %85, %86
  store i32 %87, ptr %18, align 4
  %88 = load i32, ptr %18, align 4
  %89 = load ptr, ptr %4, align 8
  %90 = getelementptr inbounds i16, ptr %89, i64 1
  %91 = load i16, ptr %90, align 2
  %92 = zext i16 %91 to i32
  %93 = icmp eq i32 %92, 65535
  br i1 %93, label %94, label %95

94:                                               ; preds = %79
  br label %100

95:                                               ; preds = %79
  %96 = load ptr, ptr %6, align 8
  %97 = getelementptr inbounds %struct._cms_interp_struc, ptr %96, i32 0, i32 6
  %98 = getelementptr inbounds [15 x i32], ptr %97, i64 0, i64 0
  %99 = load i32, ptr %98, align 4
  br label %100

100:                                              ; preds = %95, %94
  %101 = phi i32 [ 0, %94 ], [ %99, %95 ]
  %102 = add i32 %88, %101
  store i32 %102, ptr %19, align 4
  store i32 0, ptr %8, align 4
  br label %103

103:                                              ; preds = %187, %100
  %104 = load i32, ptr %8, align 4
  %105 = load i32, ptr %9, align 4
  %106 = icmp slt i32 %104, %105
  br i1 %106, label %107, label %190

107:                                              ; preds = %103
  %108 = load ptr, ptr %7, align 8
  %109 = load i32, ptr %16, align 4
  %110 = load i32, ptr %18, align 4
  %111 = add nsw i32 %109, %110
  %112 = load i32, ptr %8, align 4
  %113 = add nsw i32 %111, %112
  %114 = sext i32 %113 to i64
  %115 = getelementptr inbounds i16, ptr %108, i64 %114
  %116 = load i16, ptr %115, align 2
  %117 = zext i16 %116 to i32
  store i32 %117, ptr %20, align 4
  %118 = load ptr, ptr %7, align 8
  %119 = load i32, ptr %16, align 4
  %120 = load i32, ptr %19, align 4
  %121 = add nsw i32 %119, %120
  %122 = load i32, ptr %8, align 4
  %123 = add nsw i32 %121, %122
  %124 = sext i32 %123 to i64
  %125 = getelementptr inbounds i16, ptr %118, i64 %124
  %126 = load i16, ptr %125, align 2
  %127 = zext i16 %126 to i32
  store i32 %127, ptr %21, align 4
  %128 = load ptr, ptr %7, align 8
  %129 = load i32, ptr %17, align 4
  %130 = load i32, ptr %18, align 4
  %131 = add nsw i32 %129, %130
  %132 = load i32, ptr %8, align 4
  %133 = add nsw i32 %131, %132
  %134 = sext i32 %133 to i64
  %135 = getelementptr inbounds i16, ptr %128, i64 %134
  %136 = load i16, ptr %135, align 2
  %137 = zext i16 %136 to i32
  store i32 %137, ptr %22, align 4
  %138 = load ptr, ptr %7, align 8
  %139 = load i32, ptr %17, align 4
  %140 = load i32, ptr %19, align 4
  %141 = add nsw i32 %139, %140
  %142 = load i32, ptr %8, align 4
  %143 = add nsw i32 %141, %142
  %144 = sext i32 %143 to i64
  %145 = getelementptr inbounds i16, ptr %138, i64 %144
  %146 = load i16, ptr %145, align 2
  %147 = zext i16 %146 to i32
  store i32 %147, ptr %23, align 4
  %148 = load i32, ptr %20, align 4
  %149 = load i32, ptr %22, align 4
  %150 = load i32, ptr %20, align 4
  %151 = sub nsw i32 %149, %150
  %152 = load i32, ptr %12, align 4
  %153 = mul nsw i32 %151, %152
  %154 = add nsw i32 %153, 32768
  %155 = ashr i32 %154, 16
  %156 = add nsw i32 %148, %155
  %157 = trunc i32 %156 to i16
  %158 = zext i16 %157 to i32
  store i32 %158, ptr %24, align 4
  %159 = load i32, ptr %21, align 4
  %160 = load i32, ptr %23, align 4
  %161 = load i32, ptr %21, align 4
  %162 = sub nsw i32 %160, %161
  %163 = load i32, ptr %12, align 4
  %164 = mul nsw i32 %162, %163
  %165 = add nsw i32 %164, 32768
  %166 = ashr i32 %165, 16
  %167 = add nsw i32 %159, %166
  %168 = trunc i32 %167 to i16
  %169 = zext i16 %168 to i32
  store i32 %169, ptr %25, align 4
  %170 = load i32, ptr %24, align 4
  %171 = load i32, ptr %25, align 4
  %172 = load i32, ptr %24, align 4
  %173 = sub nsw i32 %171, %172
  %174 = load i32, ptr %13, align 4
  %175 = mul nsw i32 %173, %174
  %176 = add nsw i32 %175, 32768
  %177 = ashr i32 %176, 16
  %178 = add nsw i32 %170, %177
  %179 = trunc i32 %178 to i16
  %180 = zext i16 %179 to i32
  store i32 %180, ptr %26, align 4
  %181 = load i32, ptr %26, align 4
  %182 = trunc i32 %181 to i16
  %183 = load ptr, ptr %5, align 8
  %184 = load i32, ptr %8, align 4
  %185 = sext i32 %184 to i64
  %186 = getelementptr inbounds i16, ptr %183, i64 %185
  store i16 %182, ptr %186, align 2
  br label %187

187:                                              ; preds = %107
  %188 = load i32, ptr %8, align 4
  %189 = add nsw i32 %188, 1
  store i32 %189, ptr %8, align 4
  br label %103, !llvm.loop !15

190:                                              ; preds = %103
  ret void
}