; Function Attrs: nofree norecurse nosync nounwind memory(read, argmem: readwrite, inaccessiblemem: none) uwtable
define internal void @BilinearInterp16(ptr nocapture noundef readonly %0, ptr nocapture noundef writeonly %1, ptr nocapture noundef readonly %2) #4 {
  %4 = getelementptr inbounds i8, ptr %2, i64 16
  %5 = load i32, ptr %4, align 8
  %6 = load i16, ptr %0, align 2
  %7 = zext i16 %6 to i32
  %8 = getelementptr inbounds i8, ptr %2, i64 80
  %9 = load i32, ptr %8, align 8
  %10 = mul i32 %9, %7
  %11 = add nsw i32 %10, 32767
  %12 = sdiv i32 %11, 65535
  %13 = add nsw i32 %12, %10
  %14 = and i32 %13, 65535
  %15 = getelementptr inbounds i8, ptr %0, i64 2
  %16 = load i16, ptr %15, align 2
  %17 = zext i16 %16 to i32
  %18 = getelementptr inbounds i8, ptr %2, i64 84
  %19 = load i32, ptr %18, align 4
  %20 = mul i32 %19, %17
  %21 = add nsw i32 %20, 32767
  %22 = sdiv i32 %21, 65535
  %23 = add nsw i32 %22, %20
  %24 = and i32 %23, 65535
  %25 = icmp sgt i32 %5, 0
  br i1 %25, label %.lr.ph, label %._crit_edge

.lr.ph:                                           ; preds = %3
  %26 = getelementptr inbounds i8, ptr %2, i64 200
  %27 = load ptr, ptr %26, align 8
  %28 = ashr i32 %23, 16
  %29 = getelementptr inbounds i8, ptr %2, i64 140
  %30 = load i32, ptr %29, align 4
  %31 = mul i32 %28, %30
  %32 = icmp eq i16 %16, -1
  %33 = select i1 %32, i32 0, i32 %30
  %34 = add i32 %31, %33
  %35 = ashr i32 %13, 16
  %36 = getelementptr inbounds i8, ptr %2, i64 144
  %37 = load i32, ptr %36, align 4
  %38 = mul i32 %35, %37
  %39 = icmp eq i16 %6, -1
  %spec.select = select i1 %39, i32 0, i32 %37
  %40 = add i32 %38, %spec.select
  %41 = add nsw i32 %31, %38
  %42 = add nsw i32 %34, %38
  %43 = add nsw i32 %31, %40
  %44 = add nsw i32 %34, %40
  %45 = sext i32 %41 to i64
  %46 = sext i32 %42 to i64
  %47 = sext i32 %43 to i64
  %48 = sext i32 %44 to i64
  %wide.trip.count = zext nneg i32 %5 to i64
  %invariant.gep = getelementptr i16, ptr %27, i64 %45
  %invariant.gep55 = getelementptr i16, ptr %27, i64 %46
  %invariant.gep57 = getelementptr i16, ptr %27, i64 %47
  %invariant.gep59 = getelementptr i16, ptr %27, i64 %48
  br label %49

49:                                               ; preds = %.lr.ph, %49
  %indvars.iv = phi i64 [ 0, %.lr.ph ], [ %indvars.iv.next, %49 ]
  %gep = getelementptr i16, ptr %invariant.gep, i64 %indvars.iv
  %50 = load i16, ptr %gep, align 2
  %51 = zext i16 %50 to i32
  %gep56 = getelementptr i16, ptr %invariant.gep55, i64 %indvars.iv
  %52 = load i16, ptr %gep56, align 2
  %53 = zext i16 %52 to i32
  %gep58 = getelementptr i16, ptr %invariant.gep57, i64 %indvars.iv
  %54 = load i16, ptr %gep58, align 2
  %55 = zext i16 %54 to i32
  %gep60 = getelementptr i16, ptr %invariant.gep59, i64 %indvars.iv
  %56 = load i16, ptr %gep60, align 2
  %57 = zext i16 %56 to i32
  %58 = sub nsw i32 %55, %51
  %59 = mul nsw i32 %58, %14
  %60 = add nsw i32 %59, 32768
  %61 = lshr i32 %60, 16
  %62 = trunc nuw i32 %61 to i16
  %63 = add i16 %50, %62
  %64 = zext i16 %63 to i32
  %65 = sub nsw i32 %57, %53
  %66 = mul nsw i32 %65, %14
  %67 = add nsw i32 %66, 32768
  %68 = lshr i32 %67, 16
  %69 = trunc nuw i32 %68 to i16
  %70 = add i16 %52, %69
  %71 = zext i16 %70 to i32
  %72 = sub nsw i32 %71, %64
  %73 = mul nsw i32 %72, %24
  %74 = add nsw i32 %73, 32768
  %75 = lshr i32 %74, 16
  %76 = trunc nuw i32 %75 to i16
  %77 = add i16 %63, %76
  %78 = getelementptr inbounds i16, ptr %1, i64 %indvars.iv
  store i16 %77, ptr %78, align 2
  %indvars.iv.next = add nuw nsw i64 %indvars.iv, 1
  %exitcond.not = icmp eq i64 %indvars.iv.next, %wide.trip.count
  br i1 %exitcond.not, label %._crit_edge, label %49, !llvm.loop !15

._crit_edge:                                      ; preds = %49, %3
  ret void
}